target datalayout = "e-m:e-p270:32:32-p271:32:32-p272:64:64-i64:64-i128:128-f80:128-n8:16:32:64-S128"
target triple = "x86_64-pc-linux-gnu"

%struct._psqlSettings = type { ptr, i32, ptr, i8, ptr, ptr, %struct.printQueryOpt, ptr, ptr, ptr, i8, i8, i32, i32, ptr, ptr, i8, [4 x ptr], i8, i32, ptr, i8, i32, ptr, ptr, i64, i64, i8, ptr, ptr, ptr, i8, i8, i8, i8, i8, i8, i8, i32, i32, i32, i32, i32, i32, i32, i32, ptr, ptr, ptr, i32, i8, i32 }
%struct.printQueryOpt = type { %struct.printTableOpt, ptr, ptr, ptr, i8, ptr, i32 }
%struct.printTableOpt = type { i32, i16, i32, i32, i16, i16, i32, i8, i8, i8, i8, i64, ptr, %struct.separator, %struct.separator, [2 x i8], i8, ptr, i32, i32, i32, i32, i32, i32 }
%struct.separator = type { ptr, i8 }
%struct.PQExpBufferData = type { ptr, i64, i64 }

@pset = external global %struct._psqlSettings, align 8
@.str.2 = private unnamed_addr constant [5 x i8] c"Name\00", align 1
@.str.6 = private unnamed_addr constant [12 x i8] c"Description\00", align 1
@describeAccessMethods.translate_columns = internal constant [4 x i8] c"\00\01\00\00", align 1
@.str.14 = private unnamed_addr constant [57 x i8] c"The server (version %s) does not support access methods.\00", align 1
@.str.15 = private unnamed_addr constant [87 x i8] c"SELECT amname AS \22%s\22,\0A  CASE amtype WHEN 'i' THEN '%s' WHEN 't' THEN '%s' END AS \22%s\22\00", align 1
@.str.16 = private unnamed_addr constant [6 x i8] c"Index\00", align 1
@.str.17 = private unnamed_addr constant [6 x i8] c"Table\00", align 1
@.str.18 = private unnamed_addr constant [5 x i8] c"Type\00", align 1
@.str.19 = private unnamed_addr constant [74 x i8] c",\0A  amhandler AS \22%s\22,\0A  pg_catalog.obj_description(oid, 'pg_am') AS \22%s\22\00", align 1
@.str.20 = private unnamed_addr constant [8 x i8] c"Handler\00", align 1
@.str.21 = private unnamed_addr constant [24 x i8] c"\0AFROM pg_catalog.pg_am\0A\00", align 1
@.str.22 = private unnamed_addr constant [7 x i8] c"amname\00", align 1
@.str.23 = private unnamed_addr constant [12 x i8] c"ORDER BY 1;\00", align 1
@.str.24 = private unnamed_addr constant [23 x i8] c"List of access methods\00", align 1
@.str.912 = private unnamed_addr constant [52 x i8] c"improper qualified name (too many dotted names): %s\00", align 1
@.str.913 = private unnamed_addr constant [47 x i8] c"You are currently not connected to a database.\00", align 1
@.str.914 = private unnamed_addr constant [50 x i8] c"cross-database references are not implemented: %s\00", align 1

; Function Attrs: nounwind uwtable
define internal zeroext i1 @validateSQLNamePattern(ptr noundef %0, ptr noundef %1, i1 noundef zeroext %2, i1 noundef zeroext %3, ptr noundef %4, ptr noundef %5, ptr noundef %6, ptr noundef %7, ptr noundef %8, i32 noundef %9) #0 {
  %11 = alloca i1, align 1
  %12 = alloca ptr, align 8
  %13 = alloca ptr, align 8
  %14 = alloca i8, align 1
  %15 = alloca i8, align 1
  %16 = alloca ptr, align 8
  %17 = alloca ptr, align 8
  %18 = alloca ptr, align 8
  %19 = alloca ptr, align 8
  %20 = alloca ptr, align 8
  %21 = alloca i32, align 4
  %22 = alloca %struct.PQExpBufferData, align 8
  %23 = alloca i32, align 4
  %24 = alloca i8, align 1
  %25 = alloca i32, align 4
  store ptr %0, ptr %12, align 8
  store ptr %1, ptr %13, align 8
  %26 = zext i1 %2 to i8
  store i8 %26, ptr %14, align 1
  %27 = zext i1 %3 to i8
  store i8 %27, ptr %15, align 1
  store ptr %4, ptr %16, align 8
  store ptr %5, ptr %17, align 8
  store ptr %6, ptr %18, align 8
  store ptr %7, ptr %19, align 8
  store ptr %8, ptr %20, align 8
  store i32 %9, ptr %21, align 4
  call void @llvm.lifetime.start.p0(i64 24, ptr %22) #8
  call void @llvm.lifetime.start.p0(i64 4, ptr %23) #8
  call void @llvm.lifetime.start.p0(i64 1, ptr %24) #8
  call void @initPQExpBuffer(ptr noundef %22)
  %28 = load ptr, ptr @pset, align 8
  %29 = load ptr, ptr %12, align 8
  %30 = load ptr, ptr %13, align 8
  %31 = load i8, ptr %14, align 1, !range !4, !noundef !5
  %32 = trunc i8 %31 to i1
  %33 = load i8, ptr %15, align 1, !range !4, !noundef !5
  %34 = trunc i8 %33 to i1
  %35 = load ptr, ptr %16, align 8
  %36 = load ptr, ptr %17, align 8
  %37 = load ptr, ptr %18, align 8
  %38 = load ptr, ptr %19, align 8
  %39 = call zeroext i1 @processSQLNamePattern(ptr noundef %28, ptr noundef %29, ptr noundef %30, i1 noundef zeroext %32, i1 noundef zeroext %34, ptr noundef %35, ptr noundef %36, ptr noundef %37, ptr noundef %38, ptr noundef %22, ptr noundef %23)
  %40 = zext i1 %39 to i8
  store i8 %40, ptr %24, align 1
  %41 = load ptr, ptr %20, align 8
  %42 = icmp ne ptr %41, null
  br i1 %42, label %43, label %48

43:                                               ; preds = %10
  %44 = load i8, ptr %24, align 1, !range !4, !noundef !5
  %45 = trunc i8 %44 to i1
  %46 = load ptr, ptr %20, align 8
  %47 = zext i1 %45 to i8
  store i8 %47, ptr %46, align 1
  br label %48

48:                                               ; preds = %43, %10
  %49 = load i32, ptr %23, align 4
  %50 = load i32, ptr %21, align 4
  %51 = icmp sge i32 %49, %50
  br i1 %51, label %52, label %54

52:                                               ; preds = %48
  %53 = load ptr, ptr %13, align 8
  call void (i32, i32, ptr, ...) @pg_log_generic(i32 noundef 4, i32 noundef 0, ptr noundef @.str.912, ptr noundef %53)
  br label %78

54:                                               ; preds = %48
  %55 = load i32, ptr %21, align 4
  %56 = icmp sgt i32 %55, 1
  br i1 %56, label %57, label %77

57:                                               ; preds = %54
  %58 = load i32, ptr %23, align 4
  %59 = load i32, ptr %21, align 4
  %60 = sub i32 %59, 1
  %61 = icmp eq i32 %58, %60
  br i1 %61, label %62, label %77

62:                                               ; preds = %57
  %63 = load ptr, ptr @pset, align 8
  %64 = call ptr @PQdb(ptr noundef %63)
  %65 = icmp eq ptr %64, null
  br i1 %65, label %66, label %67

66:                                               ; preds = %62
  call void (i32, i32, ptr, ...) @pg_log_generic(i32 noundef 4, i32 noundef 0, ptr noundef @.str.913)
  br label %78

67:                                               ; preds = %62
  %68 = load ptr, ptr @pset, align 8
  %69 = call ptr @PQdb(ptr noundef %68)
  %70 = getelementptr inbounds nuw %struct.PQExpBufferData, ptr %22, i32 0, i32 0
  %71 = load ptr, ptr %70, align 8
  %72 = call i32 @strcmp(ptr noundef %69, ptr noundef %71) #9
  %73 = icmp ne i32 %72, 0
  br i1 %73, label %74, label %76

74:                                               ; preds = %67
  %75 = load ptr, ptr %13, align 8
  call void (i32, i32, ptr, ...) @pg_log_generic(i32 noundef 4, i32 noundef 0, ptr noundef @.str.914, ptr noundef %75)
  br label %78

76:                                               ; preds = %67
  br label %77

77:                                               ; preds = %76, %57, %54
  call void @termPQExpBuffer(ptr noundef %22)
  store i1 true, ptr %11, align 1
  store i32 1, ptr %25, align 4
  br label %79

78:                                               ; preds = %74, %66, %52
  call void @termPQExpBuffer(ptr noundef %22)
  store i1 false, ptr %11, align 1
  store i32 1, ptr %25, align 4
  br label %79

79:                                               ; preds = %78, %77
  call void @llvm.lifetime.end.p0(i64 1, ptr %24) #8
  call void @llvm.lifetime.end.p0(i64 4, ptr %23) #8
  call void @llvm.lifetime.end.p0(i64 24, ptr %22) #8
  %80 = load i1, ptr %11, align 1
  ret i1 %80
}

; Function Attrs: nounwind uwtable
define dso_local zeroext i1 @describeAccessMethods(ptr noundef %0, i1 noundef zeroext %1) #0 {
  %3 = alloca i1, align 1
  %4 = alloca ptr, align 8
  %5 = alloca i8, align 1
  %6 = alloca %struct.PQExpBufferData, align 8
  %7 = alloca ptr, align 8
  %8 = alloca %struct.printQueryOpt, align 8
  %9 = alloca [32 x i8], align 16
  %10 = alloca i32, align 4
  store ptr %0, ptr %4, align 8
  %11 = zext i1 %1 to i8
  store i8 %11, ptr %5, align 1
  call void @llvm.lifetime.start.p0(i64 24, ptr %6) #8
  call void @llvm.lifetime.start.p0(i64 8, ptr %7) #8
  call void @llvm.lifetime.start.p0(i64 168, ptr %8) #8
  call void @llvm.memcpy.p0.p0.i64(ptr align 8 %8, ptr align 8 getelementptr inbounds nuw (%struct._psqlSettings, ptr @pset, i32 0, i32 6), i64 168, i1 false)
  %12 = load i32, ptr getelementptr inbounds nuw (%struct._psqlSettings, ptr @pset, i32 0, i32 22), align 4
  %13 = icmp slt i32 %12, 90600
  br i1 %13, label %14, label %18

14:                                               ; preds = %2
  call void @llvm.lifetime.start.p0(i64 32, ptr %9) #8
  %15 = load i32, ptr getelementptr inbounds nuw (%struct._psqlSettings, ptr @pset, i32 0, i32 22), align 4
  %16 = getelementptr inbounds [32 x i8], ptr %9, i64 0, i64 0
  %17 = call ptr @formatPGVersionNumber(i32 noundef %15, i1 noundef zeroext false, ptr noundef %16, i64 noundef 32)
  call void (i32, i32, ptr, ...) @pg_log_generic(i32 noundef 4, i32 noundef 0, ptr noundef @.str.14, ptr noundef %17)
  store i1 true, ptr %3, align 1
  store i32 1, ptr %10, align 4
  call void @llvm.lifetime.end.p0(i64 32, ptr %9) #8
  br label %42

18:                                               ; preds = %2
  call void @initPQExpBuffer(ptr noundef %6)
  call void (ptr, ptr, ...) @printfPQExpBuffer(ptr noundef %6, ptr noundef @.str.15, ptr noundef @.str.2, ptr noundef @.str.16, ptr noundef @.str.17, ptr noundef @.str.18)
  %19 = load i8, ptr %5, align 1, !range !4, !noundef !5
  %20 = trunc i8 %19 to i1
  br i1 %20, label %21, label %22

21:                                               ; preds = %18
  call void (ptr, ptr, ...) @appendPQExpBuffer(ptr noundef %6, ptr noundef @.str.19, ptr noundef @.str.20, ptr noundef @.str.6)
  br label %22

22:                                               ; preds = %21, %18
  call void @appendPQExpBufferStr(ptr noundef %6, ptr noundef @.str.21)
  %23 = load ptr, ptr %4, align 8
  %24 = call zeroext i1 @validateSQLNamePattern(ptr noundef %6, ptr noundef %23, i1 noundef zeroext false, i1 noundef zeroext false, ptr noundef null, ptr noundef @.str.22, ptr noundef null, ptr noundef null, ptr noundef null, i32 noundef 1)
  br i1 %24, label %26, label %25

25:                                               ; preds = %22
  call void @termPQExpBuffer(ptr noundef %6)
  store i1 false, ptr %3, align 1
  store i32 1, ptr %10, align 4
  br label %42

26:                                               ; preds = %22
  call void @appendPQExpBufferStr(ptr noundef %6, ptr noundef @.str.23)
  %27 = getelementptr inbounds nuw %struct.PQExpBufferData, ptr %6, i32 0, i32 0
  %28 = load ptr, ptr %27, align 8
  %29 = call ptr @PSQLexec(ptr noundef %28)
  store ptr %29, ptr %7, align 8
  call void @termPQExpBuffer(ptr noundef %6)
  %30 = load ptr, ptr %7, align 8
  %31 = icmp ne ptr %30, null
  br i1 %31, label %33, label %32

32:                                               ; preds = %26
  store i1 false, ptr %3, align 1
  store i32 1, ptr %10, align 4
  br label %42

33:                                               ; preds = %26
  %34 = getelementptr inbounds nuw %struct.printQueryOpt, ptr %8, i32 0, i32 2
  store ptr @.str.24, ptr %34, align 8
  %35 = getelementptr inbounds nuw %struct.printQueryOpt, ptr %8, i32 0, i32 4
  store i8 1, ptr %35, align 8
  %36 = getelementptr inbounds nuw %struct.printQueryOpt, ptr %8, i32 0, i32 5
  store ptr @describeAccessMethods.translate_columns, ptr %36, align 8
  %37 = getelementptr inbounds nuw %struct.printQueryOpt, ptr %8, i32 0, i32 6
  store i32 4, ptr %37, align 8
  %38 = load ptr, ptr %7, align 8
  %39 = load ptr, ptr getelementptr inbounds nuw (%struct._psqlSettings, ptr @pset, i32 0, i32 2), align 8
  %40 = load ptr, ptr getelementptr inbounds nuw (%struct._psqlSettings, ptr @pset, i32 0, i32 28), align 8
  call void @printQuery(ptr noundef %38, ptr noundef %8, ptr noundef %39, i1 noundef zeroext false, ptr noundef %40)
  %41 = load ptr, ptr %7, align 8
  call void @PQclear(ptr noundef %41)
  store i1 true, ptr %3, align 1
  store i32 1, ptr %10, align 4
  br label %42

42:                                               ; preds = %33, %32, %25, %14
  call void @llvm.lifetime.end.p0(i64 168, ptr %8) #8
  call void @llvm.lifetime.end.p0(i64 8, ptr %7) #8
  call void @llvm.lifetime.end.p0(i64 24, ptr %6) #8
  %43 = load i1, ptr %3, align 1
  ret i1 %43
}